; ModuleID = '52/4772.c'
source_filename = "52/4772.c"
target datalayout = "e-m:e-p270:32:32-p271:32:32-p272:64:64-i64:64-f80:128-n8:16:32:64-S128"
target triple = "x86_64-pc-linux-gnu"

@.str = private unnamed_addr constant [6 x i8] c"%d %d\00", align 1
@.str.1 = private unnamed_addr constant [3 x i8] c"%d\00", align 1
@.str.2 = private unnamed_addr constant [4 x i8] c"%d \00", align 1

; Function Attrs: noinline nounwind uwtable
define dso_local i32 @main() #0 {
  %1 = alloca i32, align 4
  %2 = alloca [105 x i32], align 16
  %3 = alloca i32, align 4
  %4 = alloca i32, align 4
  %5 = alloca i32, align 4
  %6 = alloca i32*, align 8
  store i32 0, i32* %1, align 4
  store i32* null, i32** %6, align 8
  %7 = call i32 (i8*, ...) @__isoc99_scanf(i8* getelementptr inbounds ([6 x i8], [6 x i8]* @.str, i64 0, i64 0), i32* %3, i32* %4)
  store i32 0, i32* %5, align 4
  br label %8

8:                                                ; preds = %17, %0
  %9 = load i32, i32* %5, align 4
  %10 = load i32, i32* %3, align 4
  %11 = icmp slt i32 %9, %10
  br i1 %11, label %12, label %20

12:                                               ; preds = %8
  %13 = load i32, i32* %5, align 4
  %14 = sext i32 %13 to i64
  %15 = getelementptr inbounds [105 x i32], [105 x i32]* %2, i64 0, i64 %14
  %16 = call i32 (i8*, ...) @__isoc99_scanf(i8* getelementptr inbounds ([3 x i8], [3 x i8]* @.str.1, i64 0, i64 0), i32* %15)
  br label %17

17:                                               ; preds = %12
  %18 = load i32, i32* %5, align 4
  %19 = add nsw i32 %18, 1
  store i32 %19, i32* %5, align 4
  br label %8

20:                                               ; preds = %8
  %21 = getelementptr inbounds [105 x i32], [105 x i32]* %2, i64 0, i64 0
  store i32* %21, i32** %6, align 8
  %22 = load i32*, i32** %6, align 8
  %23 = load i32, i32* %3, align 4
  call void @UpsideDown(i32* %22, i32 %23)
  %24 = load i32*, i32** %6, align 8
  %25 = load i32, i32* %4, align 4
  call void @UpsideDown(i32* %24, i32 %25)
  %26 = load i32*, i32** %6, align 8
  %27 = load i32, i32* %4, align 4
  %28 = sext i32 %27 to i64
  %29 = getelementptr inbounds i32, i32* %26, i64 %28
  %30 = load i32, i32* %3, align 4
  %31 = load i32, i32* %4, align 4
  %32 = sub nsw i32 %30, %31
  call void @UpsideDown(i32* %29, i32 %32)
  store i32 0, i32* %5, align 4
  br label %33

33:                                               ; preds = %44, %20
  %34 = load i32, i32* %5, align 4
  %35 = load i32, i32* %3, align 4
  %36 = sub nsw i32 %35, 1
  %37 = icmp slt i32 %34, %36
  br i1 %37, label %38, label %47

38:                                               ; preds = %33
  %39 = load i32, i32* %5, align 4
  %40 = sext i32 %39 to i64
  %41 = getelementptr inbounds [105 x i32], [105 x i32]* %2, i64 0, i64 %40
  %42 = load i32, i32* %41, align 4
  %43 = call i32 (i8*, ...) @printf(i8* getelementptr inbounds ([4 x i8], [4 x i8]* @.str.2, i64 0, i64 0), i32 %42)
  br label %44

44:                                               ; preds = %38
  %45 = load i32, i32* %5, align 4
  %46 = add nsw i32 %45, 1
  store i32 %46, i32* %5, align 4
  br label %33

47:                                               ; preds = %33
  %48 = load i32, i32* %3, align 4
  %49 = sub nsw i32 %48, 1
  %50 = sext i32 %49 to i64
  %51 = getelementptr inbounds [105 x i32], [105 x i32]* %2, i64 0, i64 %50
  %52 = load i32, i32* %51, align 4
  %53 = call i32 (i8*, ...) @printf(i8* getelementptr inbounds ([3 x i8], [3 x i8]* @.str.1, i64 0, i64 0), i32 %52)
  ret i32 0
}

declare dso_local i32 @__isoc99_scanf(i8*, ...) #1

; Function Attrs: noinline nounwind uwtable
define dso_local void @UpsideDown(i32* %0, i32 %1) #0 {
  %3 = alloca i32*, align 8
  %4 = alloca i32, align 4
  %5 = alloca i32, align 4
  %6 = alloca i32*, align 8
  %7 = alloca i32*, align 8
  store i32* %0, i32** %3, align 8
  store i32 %1, i32* %4, align 4
  %8 = load i32*, i32** %3, align 8
  store i32* %8, i32** %6, align 8
  %9 = load i32*, i32** %3, align 8
  %10 = load i32, i32* %4, align 4
  %11 = sext i32 %10 to i64
  %12 = getelementptr inbounds i32, i32* %9, i64 %11
  store i32* %12, i32** %7, align 8
  br label %13

13:                                               ; preds = %25, %2
  %14 = load i32*, i32** %6, align 8
  %15 = load i32*, i32** %7, align 8
  %16 = icmp ult i32* %14, %15
  br i1 %16, label %17, label %30

17:                                               ; preds = %13
  %18 = load i32*, i32** %6, align 8
  %19 = load i32, i32* %18, align 4
  store i32 %19, i32* %5, align 4
  %20 = load i32*, i32** %7, align 8
  %21 = load i32, i32* %20, align 4
  %22 = load i32*, i32** %6, align 8
  store i32 %21, i32* %22, align 4
  %23 = load i32, i32* %5, align 4
  %24 = load i32*, i32** %7, align 8
  store i32 %23, i32* %24, align 4
  br label %25

25:                                               ; preds = %17
  %26 = load i32*, i32** %6, align 8
  %27 = getelementptr inbounds i32, i32* %26, i32 1
  store i32* %27, i32** %6, align 8
  %28 = load i32*, i32** %7, align 8
  %29 = getelementptr inbounds i32, i32* %28, i32 -1
  store i32* %29, i32** %7, align 8
  br label %13

30:                                               ; preds = %13
  ret void
}

declare dso_local i32 @printf(i8*, ...) #1


!llvm.module.flags = !{!0}
!llvm.ident = !{!1}

!0 = !{i32 1, !"wchar_size", i32 4}
!1 = !{!"clang version 10.0.0-4ubuntu1 "}
